; Function Attrs: mustprogress uwtable
define noundef zeroext i1 @_ZNK5Ipopt10SymTMatrix19HasValidNumbersImplEv(ptr noundef nonnull readonly align 8 captures(none) dereferenceable(97) %0) unnamed_addr #0 align 2 {
  %2 = getelementptr inbounds nuw i8, ptr %0, i64 80
  %3 = load ptr, ptr %2, align 8, !tbaa !28
  %4 = getelementptr inbounds nuw i8, ptr %3, i64 20
  %5 = load i32, ptr %4, align 4, !tbaa !34
  %6 = getelementptr inbounds nuw i8, ptr %0, i64 88
  %7 = load ptr, ptr %6, align 8, !tbaa !32
  %8 = tail call noundef double @_ZN5Ipopt10IpBlasAsumEiPKdi(i32 noundef %5, ptr noundef %7, i32 noundef 1)
  %9 = tail call noundef zeroext i1 @_ZN5Ipopt14IsFiniteNumberEd(double noundef %8)
  ret i1 %9
}